target datalayout = "e-m:e-p270:32:32-p271:32:32-p272:64:64-i64:64-i128:128-f80:128-n8:16:32:64-S128"
target triple = "x86_64-pc-linux-gnu"

%struct.OSSL_TIME = type { i64 }
%struct.CRYPTO_REF_COUNT = type { i32 }
%struct.crypto_ex_data_st = type { ptr, ptr }
%struct.srp_ctx_st = type { ptr, ptr, ptr, ptr, ptr, ptr, ptr, ptr, ptr, ptr, ptr, ptr, ptr, ptr, i32, i64 }
%struct.ssl_ctx_st = type { ptr, ptr, ptr, ptr, ptr, ptr, ptr, i64, ptr, ptr, i32, %struct.OSSL_TIME, ptr, ptr, ptr, %struct.anon.3, %struct.CRYPTO_REF_COUNT, ptr, ptr, ptr, ptr, ptr, ptr, ptr, ptr, ptr, %struct.crypto_ex_data_st, ptr, ptr, ptr, ptr, ptr, ptr, ptr, i64, i32, i32, i32, i64, ptr, ptr, i32, ptr, ptr, i32, i64, [32 x i8], ptr, ptr, ptr, i32, ptr, ptr, ptr, i64, i64, i64, i64, ptr, ptr, ptr, ptr, ptr, %struct.anon.4, ptr, ptr, ptr, ptr, %struct.srp_ctx_st, %struct.dane_ctx_st, ptr, ptr, ptr, ptr, i32, i32, ptr, ptr, i64, i64, ptr, ptr, ptr, i64, ptr, ptr, i32, ptr, ptr, ptr, [14 x i32], [24 x ptr], [14 x ptr], [14 x i64], i64, ptr, ptr, ptr, i64, i64, ptr, i64, i64, i32, i32, i32, i32, ptr, i64, ptr, i64, i64, ptr, ptr }
%struct.anon.3 = type { i32, i32, i32, i32, i32, i32, i32, i32, i32, i32, i32 }
%struct.anon.4 = type { ptr, ptr, [16 x i8], ptr, ptr, ptr, ptr, ptr, i32, i8, i64, ptr, i64, ptr, i64, ptr, i64, ptr, ptr, i64, ptr, ptr, ptr, i64, ptr, ptr, ptr, ptr, [32 x i8] }
%struct.dane_ctx_st = type { ptr, ptr, i8, i64 }
%struct.ssl_hmac_st = type { ptr, ptr }

@.str.2 = private unnamed_addr constant [24 x i8] c"../openssl/ssl/t1_lib.c\00", align 1
@.str.18 = private unnamed_addr constant [5 x i8] c"HMAC\00", align 1

; Function Attrs: nounwind uwtable
define ptr @ssl_hmac_new(ptr noundef %0) #1 {
  %2 = alloca ptr, align 8
  %3 = alloca ptr, align 8
  %4 = alloca ptr, align 8
  %5 = alloca ptr, align 8
  %6 = alloca i32, align 4
  store ptr %0, ptr %3, align 8, !tbaa !80
  call void @llvm.lifetime.start.p0(i64 8, ptr %4) #8
  %7 = call noalias ptr @CRYPTO_zalloc(i64 noundef 16, ptr noundef @.str.2, i32 noundef 4644)
  store ptr %7, ptr %4, align 8, !tbaa !289
  call void @llvm.lifetime.start.p0(i64 8, ptr %5) #8
  store ptr null, ptr %5, align 8, !tbaa !306
  %8 = load ptr, ptr %4, align 8, !tbaa !289
  %9 = icmp eq ptr %8, null
  br i1 %9, label %10, label %11

10:                                               ; preds = %1
  store ptr null, ptr %2, align 8
  store i32 1, ptr %6, align 4
  br label %56

11:                                               ; preds = %1
  %12 = load ptr, ptr %3, align 8, !tbaa !80
  %13 = getelementptr inbounds nuw %struct.ssl_ctx_st, ptr %12, i32 0, i32 63
  %14 = getelementptr inbounds nuw %struct.anon.4, ptr %13, i32 0, i32 5
  %15 = load ptr, ptr %14, align 8, !tbaa !295
  %16 = icmp eq ptr %15, null
  br i1 %16, label %17, label %30

17:                                               ; preds = %11
  %18 = load ptr, ptr %3, align 8, !tbaa !80
  %19 = getelementptr inbounds nuw %struct.ssl_ctx_st, ptr %18, i32 0, i32 63
  %20 = getelementptr inbounds nuw %struct.anon.4, ptr %19, i32 0, i32 4
  %21 = load ptr, ptr %20, align 8, !tbaa !296
  %22 = icmp ne ptr %21, null
  br i1 %22, label %23, label %30

23:                                               ; preds = %17
  %24 = load ptr, ptr %4, align 8, !tbaa !289
  %25 = call i32 @ssl_hmac_old_new(ptr noundef %24)
  %26 = icmp ne i32 %25, 0
  br i1 %26, label %28, label %27

27:                                               ; preds = %23
  br label %50

28:                                               ; preds = %23
  %29 = load ptr, ptr %4, align 8, !tbaa !289
  store ptr %29, ptr %2, align 8
  store i32 1, ptr %6, align 4
  br label %56

30:                                               ; preds = %17, %11
  %31 = load ptr, ptr %3, align 8, !tbaa !80
  %32 = getelementptr inbounds nuw %struct.ssl_ctx_st, ptr %31, i32 0, i32 0
  %33 = load ptr, ptr %32, align 8, !tbaa !81
  %34 = load ptr, ptr %3, align 8, !tbaa !80
  %35 = getelementptr inbounds nuw %struct.ssl_ctx_st, ptr %34, i32 0, i32 89
  %36 = load ptr, ptr %35, align 8, !tbaa !210
  %37 = call ptr @EVP_MAC_fetch(ptr noundef %33, ptr noundef @.str.18, ptr noundef %36)
  store ptr %37, ptr %5, align 8, !tbaa !306
  %38 = load ptr, ptr %5, align 8, !tbaa !306
  %39 = icmp eq ptr %38, null
  br i1 %39, label %46, label %40

40:                                               ; preds = %30
  %41 = load ptr, ptr %5, align 8, !tbaa !306
  %42 = call ptr @EVP_MAC_CTX_new(ptr noundef %41)
  %43 = load ptr, ptr %4, align 8, !tbaa !289
  %44 = getelementptr inbounds nuw %struct.ssl_hmac_st, ptr %43, i32 0, i32 0
  store ptr %42, ptr %44, align 8, !tbaa !308
  %45 = icmp eq ptr %42, null
  br i1 %45, label %46, label %47

46:                                               ; preds = %40, %30
  br label %50

47:                                               ; preds = %40
  %48 = load ptr, ptr %5, align 8, !tbaa !306
  call void @EVP_MAC_free(ptr noundef %48)
  %49 = load ptr, ptr %4, align 8, !tbaa !289
  store ptr %49, ptr %2, align 8
  store i32 1, ptr %6, align 4
  br label %56

50:                                               ; preds = %46, %27
  %51 = load ptr, ptr %4, align 8, !tbaa !289
  %52 = getelementptr inbounds nuw %struct.ssl_hmac_st, ptr %51, i32 0, i32 0
  %53 = load ptr, ptr %52, align 8, !tbaa !308
  call void @EVP_MAC_CTX_free(ptr noundef %53)
  %54 = load ptr, ptr %5, align 8, !tbaa !306
  call void @EVP_MAC_free(ptr noundef %54)
  %55 = load ptr, ptr %4, align 8, !tbaa !289
  call void @CRYPTO_free(ptr noundef %55, ptr noundef @.str.2, i32 noundef 4665)
  store ptr null, ptr %2, align 8
  store i32 1, ptr %6, align 4
  br label %56

56:                                               ; preds = %50, %47, %28, %10
  call void @llvm.lifetime.end.p0(i64 8, ptr %5) #8
  call void @llvm.lifetime.end.p0(i64 8, ptr %4) #8
  %57 = load ptr, ptr %2, align 8
  ret ptr %57
}