; Function Attrs: nounwind uwtable
define ptr @ssl_hmac_new(ptr noundef readonly captures(none) %0) local_unnamed_addr #2 {
  %2 = tail call noalias ptr @CRYPTO_zalloc(i64 noundef 16, ptr noundef nonnull @.str.2, i32 noundef 4644) #14
  %3 = icmp eq ptr %2, null
  br i1 %3, label %25, label %4

4:                                                ; preds = %1
  %5 = getelementptr inbounds nuw i8, ptr %0, i64 608
  %6 = load ptr, ptr %5, align 8, !tbaa !254
  %7 = icmp eq ptr %6, null
  br i1 %7, label %8, label %13

8:                                                ; preds = %4
  %9 = getelementptr inbounds nuw i8, ptr %0, i64 600
  %10 = load ptr, ptr %9, align 8, !tbaa !255
  %.not = icmp eq ptr %10, null
  br i1 %.not, label %13, label %11

11:                                               ; preds = %8
  %12 = tail call i32 @ssl_hmac_old_new(ptr noundef nonnull %2) #14
  %.not19 = icmp eq i32 %12, 0
  br i1 %.not19, label %23, label %25

13:                                               ; preds = %8, %4
  %14 = load ptr, ptr %0, align 8, !tbaa !76
  %15 = getelementptr inbounds nuw i8, ptr %0, i64 1152
  %16 = load ptr, ptr %15, align 8, !tbaa !184
  %17 = tail call ptr @EVP_MAC_fetch(ptr noundef %14, ptr noundef nonnull @.str.18, ptr noundef %16) #14
  %18 = icmp eq ptr %17, null
  br i1 %18, label %23, label %19

19:                                               ; preds = %13
  %20 = tail call ptr @EVP_MAC_CTX_new(ptr noundef nonnull %17) #14
  store ptr %20, ptr %2, align 8, !tbaa !257
  %21 = icmp eq ptr %20, null
  br i1 %21, label %23, label %22

22:                                               ; preds = %19
  tail call void @EVP_MAC_free(ptr noundef nonnull %17) #14
  br label %25

23:                                               ; preds = %13, %19, %11
  %.0 = phi ptr [ null, %11 ], [ null, %13 ], [ %17, %19 ]
  %24 = load ptr, ptr %2, align 8, !tbaa !257
  tail call void @EVP_MAC_CTX_free(ptr noundef %24) #14
  tail call void @EVP_MAC_free(ptr noundef %.0) #14
  tail call void @CRYPTO_free(ptr noundef nonnull %2, ptr noundef nonnull @.str.2, i32 noundef 4665) #14
  br label %25

25:                                               ; preds = %11, %1, %23, %22
  %.016 = phi ptr [ null, %23 ], [ %2, %22 ], [ null, %1 ], [ %2, %11 ]
  ret ptr %.016
}